target datalayout = "e-m:e-p270:32:32-p271:32:32-p272:64:64-i64:64-i128:128-f80:128-n8:16:32:64-S128"
target triple = "x86_64-pc-linux-gnu"

%struct.RelationData = type { %struct.RelFileLocator, ptr, i32, i32, i8, i8, i8, i8, i8, i32, i32, i32, i32, ptr, ptr, i32, %struct.LockInfoData, ptr, ptr, ptr, ptr, ptr, i8, ptr, ptr, ptr, ptr, ptr, ptr, i32, ptr, i8, ptr, ptr, i32, i8, i32, ptr, i8, ptr, ptr, ptr, ptr, ptr, ptr, ptr, i32, ptr, ptr, ptr, ptr, ptr, ptr, ptr, ptr, ptr, ptr, ptr, ptr, ptr, ptr, ptr, ptr, ptr, ptr, ptr, i32, i8, ptr }
%struct.RelFileLocator = type { i32, i32, i32 }
%struct.LockInfoData = type { %struct.LockRelId }
%struct.LockRelId = type { i32, i32 }
%struct.FormData_pg_class = type { i32, %struct.nameData, i32, i32, i32, i32, i32, i32, i32, i32, float, i32, i32, i8, i8, i8, i8, i16, i16, i8, i8, i8, i8, i8, i8, i8, i8, i32, i32, i32 }
%struct.nameData = type { [64 x i8] }
%struct.IndexAmRoutine = type { i32, i16, i16, i16, i8, i8, i8, i8, i8, i8, i8, i8, i8, i8, i8, i8, i8, i8, i8, i8, i8, i32, ptr, ptr, ptr, ptr, ptr, ptr, ptr, ptr, ptr, ptr, ptr, ptr, ptr, ptr, ptr, ptr, ptr, ptr, ptr, ptr, ptr, ptr, ptr, ptr, ptr, ptr }

@.str = private unnamed_addr constant [53 x i8] c"cannot access index \22%s\22 while it is being reindexed\00", align 1
@.str.1 = private unnamed_addr constant [10 x i8] c"indexam.c\00", align 1
@__func__.index_parallelscan_estimate = private unnamed_addr constant [28 x i8] c"index_parallelscan_estimate\00", align 1

; Function Attrs: nounwind uwtable
define dso_local i64 @index_parallelscan_estimate(ptr noundef %0, i32 noundef %1, i32 noundef %2, ptr noundef %3) #0 {
  %5 = alloca ptr, align 8
  %6 = alloca i32, align 4
  %7 = alloca i32, align 4
  %8 = alloca ptr, align 8
  %9 = alloca i64, align 8
  store ptr %0, ptr %5, align 8
  store i32 %1, ptr %6, align 4
  store i32 %2, ptr %7, align 4
  store ptr %3, ptr %8, align 8
  call void @llvm.lifetime.start.p0(i64 8, ptr %9) #7
  br label %10

10:                                               ; preds = %4
  %11 = load ptr, ptr %5, align 8
  %12 = getelementptr inbounds nuw %struct.RelationData, ptr %11, i32 0, i32 15
  %13 = load i32, ptr %12, align 8
  %14 = call zeroext i1 @ReindexIsProcessingIndex(i32 noundef %13)
  %15 = zext i1 %14 to i32
  %16 = icmp ne i32 %15, 0
  %17 = zext i1 %16 to i32
  %18 = sext i32 %17 to i64
  %19 = call i64 @llvm.expect.i64(i64 %18, i64 0)
  %20 = icmp ne i64 %19, 0
  br i1 %20, label %21, label %39

21:                                               ; preds = %10
  br label %22

22:                                               ; preds = %21
  br i1 true, label %23, label %25

23:                                               ; preds = %22
  %24 = call zeroext i1 @errstart_cold(i32 noundef 21, ptr noundef null) #8
  br i1 %24, label %27, label %36

25:                                               ; preds = %22
  %26 = call zeroext i1 @errstart(i32 noundef 21, ptr noundef null)
  br i1 %26, label %27, label %36

27:                                               ; preds = %25, %23
  %28 = call i32 @errcode(i32 noundef 1088)
  %29 = load ptr, ptr %5, align 8
  %30 = getelementptr inbounds nuw %struct.RelationData, ptr %29, i32 0, i32 13
  %31 = load ptr, ptr %30, align 8
  %32 = getelementptr inbounds nuw %struct.FormData_pg_class, ptr %31, i32 0, i32 1
  %33 = getelementptr inbounds nuw %struct.nameData, ptr %32, i32 0, i32 0
  %34 = getelementptr inbounds [64 x i8], ptr %33, i64 0, i64 0
  %35 = call i32 (ptr, ...) @errmsg(ptr noundef @.str, ptr noundef %34)
  call void @errfinish(ptr noundef @.str.1, i32 noundef 460, ptr noundef @__func__.index_parallelscan_estimate)
  br label %36

36:                                               ; preds = %27, %25, %23
  unreachable

37:                                               ; No predecessors!
  br label %38

38:                                               ; preds = %37
  br label %39

39:                                               ; preds = %38, %10
  br label %40

40:                                               ; preds = %39
  br label %41

41:                                               ; preds = %40
  store i64 32, ptr %9, align 8
  %42 = load i64, ptr %9, align 8
  %43 = load ptr, ptr %8, align 8
  %44 = call i64 @EstimateSnapshotSpace(ptr noundef %43)
  %45 = call i64 @add_size(i64 noundef %42, i64 noundef %44)
  store i64 %45, ptr %9, align 8
  %46 = load i64, ptr %9, align 8
  %47 = add i64 %46, 7
  %48 = and i64 %47, -8
  store i64 %48, ptr %9, align 8
  %49 = load ptr, ptr %5, align 8
  %50 = getelementptr inbounds nuw %struct.RelationData, ptr %49, i32 0, i32 51
  %51 = load ptr, ptr %50, align 8
  %52 = getelementptr inbounds nuw %struct.IndexAmRoutine, ptr %51, i32 0, i32 43
  %53 = load ptr, ptr %52, align 8
  %54 = icmp ne ptr %53, null
  br i1 %54, label %55, label %66

55:                                               ; preds = %41
  %56 = load i64, ptr %9, align 8
  %57 = load ptr, ptr %5, align 8
  %58 = getelementptr inbounds nuw %struct.RelationData, ptr %57, i32 0, i32 51
  %59 = load ptr, ptr %58, align 8
  %60 = getelementptr inbounds nuw %struct.IndexAmRoutine, ptr %59, i32 0, i32 43
  %61 = load ptr, ptr %60, align 8
  %62 = load i32, ptr %6, align 4
  %63 = load i32, ptr %7, align 4
  %64 = call i64 %61(i32 noundef %62, i32 noundef %63)
  %65 = call i64 @add_size(i64 noundef %56, i64 noundef %64)
  store i64 %65, ptr %9, align 8
  br label %66

66:                                               ; preds = %55, %41
  %67 = load i64, ptr %9, align 8
  call void @llvm.lifetime.end.p0(i64 8, ptr %9) #7
  ret i64 %67
}