; Function Attrs: nounwind uwtable
define dso_local i64 @index_parallelscan_estimate(ptr noundef readonly captures(none) %0, i32 noundef %1, i32 noundef %2, ptr noundef %3) local_unnamed_addr #0 {
  %5 = getelementptr inbounds nuw i8, ptr %0, i64 72
  %6 = load i32, ptr %5, align 8
  %7 = tail call zeroext i1 @ReindexIsProcessingIndex(i32 noundef %6) #7
  br i1 %7, label %8, label %15, !prof !4

8:                                                ; preds = %4
  %9 = tail call zeroext i1 @errstart_cold(i32 noundef 21, ptr noundef null) #8
  tail call void @llvm.assume(i1 %9)
  %10 = tail call i32 @errcode(i32 noundef 1088) #7
  %11 = getelementptr inbounds nuw i8, ptr %0, i64 56
  %12 = load ptr, ptr %11, align 8
  %13 = getelementptr inbounds nuw i8, ptr %12, i64 4
  %14 = tail call i32 (ptr, ...) @errmsg(ptr noundef nonnull @.str, ptr noundef nonnull %13) #7
  tail call void @errfinish(ptr noundef nonnull @.str.1, i32 noundef 460, ptr noundef nonnull @__func__.index_parallelscan_estimate) #7
  unreachable

15:                                               ; preds = %4
  %16 = tail call i64 @EstimateSnapshotSpace(ptr noundef %3) #7
  %17 = tail call i64 @add_size(i64 noundef 32, i64 noundef %16) #7
  %18 = add i64 %17, 7
  %19 = and i64 %18, -8
  %20 = getelementptr inbounds nuw i8, ptr %0, i64 352
  %21 = load ptr, ptr %20, align 8
  %22 = getelementptr inbounds nuw i8, ptr %21, i64 200
  %23 = load ptr, ptr %22, align 8
  %.not = icmp eq ptr %23, null
  br i1 %.not, label %27, label %24

24:                                               ; preds = %15
  %25 = tail call i64 %23(i32 noundef %1, i32 noundef %2) #7
  %26 = tail call i64 @add_size(i64 noundef %19, i64 noundef %25) #7
  br label %27

27:                                               ; preds = %24, %15
  %.0 = phi i64 [ %26, %24 ], [ %19, %15 ]
  ret i64 %.0
}